; Function Attrs: mustprogress nounwind uwtable
define hidden noundef ptr @_ZNK34ShenandoahLoadReferenceBarrierNode11bottom_typeEv(ptr nocapture noundef nonnull readonly align 8 dereferenceable(64) %0) unnamed_addr #0 align 2 {
  %2 = getelementptr inbounds i8, ptr %0, i64 8
  %3 = load ptr, ptr %2, align 8
  %4 = getelementptr inbounds i8, ptr %3, i64 8
  %5 = load ptr, ptr %4, align 8
  %6 = icmp eq ptr %5, null
  br i1 %6, label %11, label %7

7:                                                ; preds = %1
  %8 = getelementptr inbounds i8, ptr %5, i64 16
  %9 = load ptr, ptr %8, align 8
  %10 = icmp eq ptr %9, null
  br i1 %10, label %11, label %13

11:                                               ; preds = %7, %1
  %12 = load ptr, ptr @_ZN4Type3TOPE, align 8
  br label %27

13:                                               ; preds = %7
  %14 = load ptr, ptr %5, align 8
  %15 = getelementptr inbounds i8, ptr %14, i64 40
  %16 = load ptr, ptr %15, align 8
  %17 = tail call noundef ptr %16(ptr noundef nonnull align 8 dereferenceable(52) %5) #10
  %18 = load ptr, ptr @_ZN7TypePtr8NULL_PTRE, align 8
  %19 = icmp eq ptr %17, %18
  br i1 %19, label %27, label %20

20:                                               ; preds = %13
  %21 = getelementptr inbounds i8, ptr %0, i64 56
  %22 = load i64, ptr %21, align 8
  %23 = and i64 %22, 98304
  %24 = icmp eq i64 %23, 0
  br i1 %24, label %27, label %25

25:                                               ; preds = %20
  %26 = tail call noundef ptr @_ZNK4Type11meet_helperEPKS_b(ptr noundef nonnull align 8 dereferenceable(20) %17, ptr noundef %18, i1 noundef zeroext false) #10
  br label %27

27:                                               ; preds = %20, %13, %25, %11
  %.0 = phi ptr [ %12, %11 ], [ %26, %25 ], [ %17, %13 ], [ %17, %20 ]
  ret ptr %.0
}